target datalayout = "e-m:e-p270:32:32-p271:32:32-p272:64:64-i64:64-i128:128-f80:128-n8:16:32:64-S128"
target triple = "x86_64-pc-linux-gnu"

%struct._lv_matrix_t = type { [3 x [3 x float]] }
%struct._lv_array_t = type { ptr, i32, i32, i32, i8 }
%struct.lv_area_t = type { i32, i32, i32, i32 }
%struct.lv_color32_t = type { i8, i8, i8, i8 }
%struct.lv_color_t = type { i8, i8, i8 }
%struct._lv_vector_dsc_t = type { ptr, %struct._lv_vector_draw_dsc_t, %struct._lv_draw_vector_task_dsc_t }
%struct._lv_vector_draw_dsc_t = type { %struct._lv_vector_fill_dsc_t, %struct._lv_vector_stroke_dsc_t, %struct._lv_matrix_t, i32, %struct.lv_area_t }
%struct._lv_vector_fill_dsc_t = type { i32, %struct.lv_color32_t, i8, i32, %struct._lv_draw_image_dsc_t, %struct._lv_vector_gradient_t, %struct._lv_matrix_t }
%struct._lv_draw_image_dsc_t = type { %struct.lv_draw_dsc_base_t, ptr, %struct.lv_image_header_t, i32, i32, i32, i32, i32, %struct.lv_point_t, %struct.lv_color_t, i8, i8, i8, ptr, %struct.lv_area_t, i32, ptr }
%struct.lv_draw_dsc_base_t = type { ptr, i32, i32, i32, ptr, i64, ptr }
%struct.lv_image_header_t = type <{ i64, i32 }>
%struct.lv_point_t = type { i32, i32 }
%struct._lv_vector_gradient_t = type { i32, [2 x %struct.lv_gradient_stop_t], i16, float, float, float, float, float, float, float, i32 }
%struct.lv_gradient_stop_t = type { %struct.lv_color_t, i8, i8 }
%struct._lv_vector_stroke_dsc_t = type { i32, %struct.lv_color32_t, i8, float, %struct._lv_array_t, i32, i32, i16, %struct._lv_vector_gradient_t, %struct._lv_matrix_t }
%struct._lv_draw_vector_task_dsc_t = type { %struct.lv_draw_dsc_base_t, ptr }

; Function Attrs: nounwind uwtable
define void @lv_vector_dsc_set_fill_linear_gradient(ptr noundef %0, float noundef %1, float noundef %2, float noundef %3, float noundef %4) #0 {
  %6 = alloca ptr, align 8
  %7 = alloca float, align 4
  %8 = alloca float, align 4
  %9 = alloca float, align 4
  %10 = alloca float, align 4
  store ptr %0, ptr %6, align 8, !tbaa !3
  store float %1, ptr %7, align 4, !tbaa !10
  store float %2, ptr %8, align 4, !tbaa !10
  store float %3, ptr %9, align 4, !tbaa !10
  store float %4, ptr %10, align 4, !tbaa !10
  %11 = load ptr, ptr %6, align 8, !tbaa !3
  %12 = getelementptr inbounds nuw %struct._lv_vector_dsc_t, ptr %11, i32 0, i32 1
  %13 = getelementptr inbounds nuw %struct._lv_vector_draw_dsc_t, ptr %12, i32 0, i32 0
  %14 = getelementptr inbounds nuw %struct._lv_vector_fill_dsc_t, ptr %13, i32 0, i32 0
  store i32 2, ptr %14, align 8, !tbaa !68
  %15 = load ptr, ptr %6, align 8, !tbaa !3
  %16 = getelementptr inbounds nuw %struct._lv_vector_dsc_t, ptr %15, i32 0, i32 1
  %17 = getelementptr inbounds nuw %struct._lv_vector_draw_dsc_t, ptr %16, i32 0, i32 0
  %18 = getelementptr inbounds nuw %struct._lv_vector_fill_dsc_t, ptr %17, i32 0, i32 5
  %19 = getelementptr inbounds nuw %struct._lv_vector_gradient_t, ptr %18, i32 0, i32 0
  store i32 0, ptr %19, align 8, !tbaa !71
  %20 = load float, ptr %7, align 4, !tbaa !10
  %21 = load ptr, ptr %6, align 8, !tbaa !3
  %22 = getelementptr inbounds nuw %struct._lv_vector_dsc_t, ptr %21, i32 0, i32 1
  %23 = getelementptr inbounds nuw %struct._lv_vector_draw_dsc_t, ptr %22, i32 0, i32 0
  %24 = getelementptr inbounds nuw %struct._lv_vector_fill_dsc_t, ptr %23, i32 0, i32 5
  %25 = getelementptr inbounds nuw %struct._lv_vector_gradient_t, ptr %24, i32 0, i32 3
  store float %20, ptr %25, align 8, !tbaa !72
  %26 = load float, ptr %8, align 4, !tbaa !10
  %27 = load ptr, ptr %6, align 8, !tbaa !3
  %28 = getelementptr inbounds nuw %struct._lv_vector_dsc_t, ptr %27, i32 0, i32 1
  %29 = getelementptr inbounds nuw %struct._lv_vector_draw_dsc_t, ptr %28, i32 0, i32 0
  %30 = getelementptr inbounds nuw %struct._lv_vector_fill_dsc_t, ptr %29, i32 0, i32 5
  %31 = getelementptr inbounds nuw %struct._lv_vector_gradient_t, ptr %30, i32 0, i32 4
  store float %26, ptr %31, align 4, !tbaa !73
  %32 = load float, ptr %9, align 4, !tbaa !10
  %33 = load ptr, ptr %6, align 8, !tbaa !3
  %34 = getelementptr inbounds nuw %struct._lv_vector_dsc_t, ptr %33, i32 0, i32 1
  %35 = getelementptr inbounds nuw %struct._lv_vector_draw_dsc_t, ptr %34, i32 0, i32 0
  %36 = getelementptr inbounds nuw %struct._lv_vector_fill_dsc_t, ptr %35, i32 0, i32 5
  %37 = getelementptr inbounds nuw %struct._lv_vector_gradient_t, ptr %36, i32 0, i32 5
  store float %32, ptr %37, align 8, !tbaa !74
  %38 = load float, ptr %10, align 4, !tbaa !10
  %39 = load ptr, ptr %6, align 8, !tbaa !3
  %40 = getelementptr inbounds nuw %struct._lv_vector_dsc_t, ptr %39, i32 0, i32 1
  %41 = getelementptr inbounds nuw %struct._lv_vector_draw_dsc_t, ptr %40, i32 0, i32 0
  %42 = getelementptr inbounds nuw %struct._lv_vector_fill_dsc_t, ptr %41, i32 0, i32 5
  %43 = getelementptr inbounds nuw %struct._lv_vector_gradient_t, ptr %42, i32 0, i32 6
  store float %38, ptr %43, align 4, !tbaa !75
  ret void
}