; Function Attrs: mustprogress nofree norecurse nosync nounwind willreturn memory(argmem: write) uwtable
define void @lv_vector_dsc_set_fill_linear_gradient(ptr nocapture noundef writeonly %0, float noundef %1, float noundef %2, float noundef %3, float noundef %4) local_unnamed_addr #7 {
  %6 = getelementptr inbounds nuw i8, ptr %0, i64 8
  store i32 2, ptr %6, align 8, !tbaa !61
  %7 = getelementptr inbounds nuw i8, ptr %0, i64 168
  store i32 0, ptr %7, align 8, !tbaa !64
  %8 = getelementptr inbounds nuw i8, ptr %0, i64 184
  store float %1, ptr %8, align 8, !tbaa !65
  %9 = getelementptr inbounds nuw i8, ptr %0, i64 188
  store float %2, ptr %9, align 4, !tbaa !66
  %10 = getelementptr inbounds nuw i8, ptr %0, i64 192
  store float %3, ptr %10, align 8, !tbaa !67
  %11 = getelementptr inbounds nuw i8, ptr %0, i64 196
  store float %4, ptr %11, align 4, !tbaa !68
  ret void
}